; Function Attrs: mustprogress nofree norecurse nosync nounwind willreturn memory(argmem: readwrite) uwtable
define internal fastcc void @AddHeaders(ptr noundef writeonly captures(address_is_null) %0, i32 noundef %1, i8 noundef zeroext range(i8 1, 17) %2, ptr noundef readonly captures(none) %3) unnamed_addr #9 {
  %5 = add i32 %1, 4
  %6 = icmp eq ptr %0, null
  br i1 %6, label %AddRecordHeader.exit, label %7

7:                                                ; preds = %4
  store i8 22, ptr %0, align 1, !tbaa !366
  %8 = getelementptr inbounds nuw i8, ptr %3, i64 710
  %9 = load i8, ptr %8, align 2, !tbaa !3
  %10 = getelementptr inbounds nuw i8, ptr %0, i64 1
  store i8 %9, ptr %10, align 1, !tbaa !365
  %11 = load i16, ptr %8, align 2
  %12 = and i16 %11, 255
  %13 = icmp ne i16 %12, 3
  %14 = icmp ult i16 %11, 1024
  %.not15.i = or i1 %14, %13
  %15 = lshr i16 %11, 8
  %16 = trunc nuw i16 %15 to i8
  %.sink.i = select i1 %.not15.i, i8 %16, i8 3
  %17 = getelementptr inbounds nuw i8, ptr %0, i64 2
  store i8 %.sink.i, ptr %17, align 1, !tbaa !367
  %18 = getelementptr inbounds nuw i8, ptr %3, i64 1024
  %19 = load i64, ptr %18, align 8
  %20 = and i64 %19, 131072
  %.not12.i = icmp eq i64 %20, 0
  br i1 %.not12.i, label %21, label %AddRecordHeader.exit

21:                                               ; preds = %7
  %22 = getelementptr inbounds nuw i8, ptr %0, i64 3
  %23 = lshr i32 %5, 8
  %24 = trunc i32 %23 to i8
  store i8 %24, ptr %22, align 1, !tbaa !45
  %25 = trunc i32 %5 to i8
  %26 = getelementptr inbounds nuw i8, ptr %0, i64 4
  store i8 %25, ptr %26, align 1, !tbaa !45
  br label %AddRecordHeader.exit

AddRecordHeader.exit:                             ; preds = %4, %7, %21
  %27 = getelementptr inbounds nuw i8, ptr %0, i64 5
  store i8 %2, ptr %27, align 1, !tbaa !400
  %28 = getelementptr inbounds nuw i8, ptr %0, i64 6
  %29 = lshr i32 %1, 16
  %30 = trunc i32 %29 to i8
  store i8 %30, ptr %28, align 1, !tbaa !45
  %31 = lshr i32 %1, 8
  %32 = trunc i32 %31 to i8
  %33 = getelementptr inbounds nuw i8, ptr %0, i64 7
  store i8 %32, ptr %33, align 1, !tbaa !45
  %34 = trunc i32 %1 to i8
  %35 = getelementptr inbounds nuw i8, ptr %0, i64 8
  store i8 %34, ptr %35, align 1, !tbaa !45
  ret void
}